Certificate:
    Data:
        Version: 3 (0x2)
        Serial Number: 1 (0x1)
        Signature Algorithm: sha1WithRSAEncryption
        Issuer: DC=org, DC=simple, O=Simple Inc, OU=Simple Signing CA, CN=Simple Signing CA
        Validity
            Not Before: Nov 19 08:57:56 2019 GMT
            Not After : Nov 18 08:57:56 2021 GMT
        Subject: DC=org, DC=simple, DC=simple, O=Simple Inc, OU=Simple Inc, CN=www.simple.org
        Subject Public Key Info:
            Public Key Algorithm: rsaEncryption
                RSA Public-Key: (2048 bit)
                Modulus:
                    00:d5:8c:8f:fc:5f:56:f1:e7:00:06:46:54:c9:64:
                    93:44:02:e8:1d:2a:13:6b:b7:7e:ee:9c:eb:a1:b4:
                    e5:77:37:33:47:f4:43:1a:0e:58:b8:ee:2a:9a:09:
                    4d:5a:de:0f:a7:6b:ca:4c:77:a1:23:26:49:14:77:
                    e5:70:6d:a1:74:24:f6:45:96:8c:fe:4b:cd:c8:37:
                    14:5f:13:f4:47:62:7c:bc:fa:a9:21:60:c7:9c:15:
                    c0:0f:11:ab:d3:81:88:a8:09:2c:3f:c2:24:76:db:
                    2d:26:0a:5c:11:48:8f:0f:9b:e3:ec:86:b4:a6:3e:
                    66:fd:7c:98:45:90:9d:3a:74:a9:b3:47:a0:fa:b2:
                    55:d7:d8:a6:68:ef:c0:c6:94:8c:23:40:42:53:d5:
                    dd:2c:b7:bd:ed:29:bd:9d:3d:9b:f4:02:86:be:b6:
                    0b:ce:13:7d:b0:5c:90:41:0b:e2:9b:f1:12:9a:57:
                    70:e5:5d:6a:24:1d:00:d8:18:8c:34:00:49:bd:de:
                    a7:8a:3d:7e:2e:d2:3a:cf:0d:aa:7d:04:ac:86:48:
                    69:16:76:cd:c7:78:48:5f:c8:90:d6:6a:6d:bc:9d:
                    51:26:ac:01:54:f9:fe:d3:56:25:38:97:bf:51:e9:
                    d8:b9:06:ad:38:6b:56:07:ab:32:d8:e5:9e:17:8c:
                    4f:37
                Exponent: 65537 (0x10001)
        X509v3 extensions:
            X509v3 Key Usage: critical
                Digital Signature, Key Encipherment
            X509v3 Basic Constraints: 
                CA:FALSE
            X509v3 Extended Key Usage: 
                TLS Web Server Authentication, TLS Web Client Authentication
            X509v3 Subject Key Identifier: 
                96:B8:04:8A:54:EC:19:E1:BB:B6:36:5F:43:B9:39:44:3B:AF:5B:78
            X509v3 Authority Key Identifier: 
                keyid:C4:B9:81:A9:A6:62:81:0D:0B:F0:8E:2B:DF:94:A8:AB:3E:8E:6B:07

            X509v3 Subject Alternative Name: 
                DNS:www.simple.org
    Signature Algorithm: sha1WithRSAEncryption
         bc:00:52:97:6c:58:0e:6c:e3:cf:b1:1a:2e:ef:72:d5:fe:2e:
         b0:b2:45:be:7b:62:dc:8e:43:0c:ae:17:eb:c7:55:1d:0f:e1:
         8d:be:ea:bb:0f:ba:e5:3d:5f:c9:c2:87:0d:8a:25:0e:a8:30:
         7a:3d:72:40:b6:e0:8a:ff:52:0e:b0:79:ee:2c:6b:f8:d7:0f:
         4d:4b:de:2f:90:e0:ae:4e:16:72:b6:70:9d:db:6b:34:cf:5c:
         80:37:e8:7d:4a:0c:b0:7c:b6:de:3d:a4:8e:ef:7b:08:4c:ec:
         0b:f9:43:28:03:8d:af:0d:16:d5:48:96:cf:b9:61:5e:82:6a:
         3f:51:24:6c:de:6e:3f:2d:b2:fa:4e:0f:24:02:e6:1b:c0:32:
         52:1f:80:41:63:36:1e:b7:6b:e3:bc:8d:53:0c:9a:df:bf:25:
         c6:e4:14:29:52:58:ab:c5:79:a4:92:e4:63:ac:66:13:65:16:
         f5:a6:ab:cc:3c:29:e5:5c:19:38:07:2e:a0:09:81:3c:ca:30:
         9e:c6:80:e8:39:a0:70:9a:b6:22:ea:20:ea:41:d6:cb:05:9a:
         88:04:6b:7a:93:b9:b1:41:8d:83:69:65:73:3d:94:c1:14:7f:
         ae:39:a4:d1:c5:36:f1:6c:19:89:02:b3:19:fc:ce:6a:28:1c:
         d8:3d:21:0f
-----BEGIN CERTIFICATE-----
MIIEFzCCAv+gAwIBAgIBATANBgkqhkiG9w0BAQUFADB6MRMwEQYKCZImiZPyLGQB
GRYDb3JnMRYwFAYKCZImiZPyLGQBGRYGc2ltcGxlMRMwEQYDVQQKDApTaW1wbGUg
SW5jMRowGAYDVQQLDBFTaW1wbGUgU2lnbmluZyBDQTEaMBgGA1UEAwwRU2ltcGxl
IFNpZ25pbmcgQ0EwHhcNMTkxMTE5MDg1NzU2WhcNMjExMTE4MDg1NzU2WjCBiDET
MBEGCgmSJomT8ixkARkWA29yZzEWMBQGCgmSJomT8ixkARkWBnNpbXBsZTEWMBQG
CgmSJomT8ixkARkWBnNpbXBsZTETMBEGA1UECgwKU2ltcGxlIEluYzETMBEGA1UE
CwwKU2ltcGxlIEluYzEXMBUGA1UEAwwOd3d3LnNpbXBsZS5vcmcwggEiMA0GCSqG
SIb3DQEBAQUAA4IBDwAwggEKAoIBAQDVjI/8X1bx5wAGRlTJZJNEAugdKhNrt37u
nOuhtOV3NzNH9EMaDli47iqaCU1a3g+na8pMd6EjJkkUd+VwbaF0JPZFloz+S83I
NxRfE/RHYny8+qkhYMecFcAPEavTgYioCSw/wiR22y0mClwRSI8Pm+PshrSmPmb9
fJhFkJ06dKmzR6D6slXX2KZo78DGlIwjQEJT1d0st73tKb2dPZv0Aoa+tgvOE32w
XJBBC+Kb8RKaV3DlXWokHQDYGIw0AEm93qeKPX4u0jrPDap9BKyGSGkWds3HeEhf
yJDWam28nVEmrAFU+f7TViU4l79R6di5Bq04a1YHqzLY5Z4XjE83AgMBAAGjgZgw
gZUwDgYDVR0PAQH/BAQDAgWgMAkGA1UdEwQCMAAwHQYDVR0lBBYwFAYIKwYBBQUH
AwEGCCsGAQUFBwMCMB0GA1UdDgQWBBSWuASKVOwZ4bu2Nl9DuTlEO69beDAfBgNV
HSMEGDAWgBTEuYGppmKBDQvwjivflKirPo5rBzAZBgNVHREEEjAQgg53d3cuc2lt
cGxlLm9yZzANBgkqhkiG9w0BAQUFAAOCAQEAvABSl2xYDmzjz7EaLu9y1f4usLJF
vnti3I5DDK4X68dVHQ/hjb7quw+65T1fycKHDYolDqgwej1yQLbgiv9SDrB57ixr
+NcPTUveL5Dgrk4WcrZwndtrNM9cgDfofUoMsHy23j2kju97CEzsC/lDKAONrw0W
1UiWz7lhXoJqP1EkbN5uPy2y+k4PJALmG8AyUh+AQWM2Hrdr47yNUwya378lxuQU
KVJYq8V5pJLkY6xmE2UW9aarzDwp5VwZOAcuoAmBPMownsaA6DmgcJq2Iuog6kHW
ywWaiARrepO5sUGNg2llcz2UwRR/rjmk0cU28WwZiQKzGfzOaigc2D0hDw==
-----END CERTIFICATE-----
