Certificate:
    Data:
        Version: 3 (0x2)
        Serial Number: 1 (0x1)
        Signature Algorithm: sha1WithRSAEncryption
        Issuer: DC=org, DC=simple, O=Simple Inc, OU=Simple Root CA, CN=Simple Root CA
        Validity
            Not Before: Nov 19 08:42:56 2019 GMT
            Not After : Nov 18 08:42:56 2029 GMT
        Subject: DC=org, DC=simple, O=Simple Inc, OU=Simple Root CA, CN=Simple Root CA
        Subject Public Key Info:
            Public Key Algorithm: rsaEncryption
                RSA Public-Key: (2048 bit)
                Modulus:
                    00:c3:aa:b0:b9:3c:0f:ce:46:c2:3e:b3:fa:0d:df:
                    1f:bb:1d:e6:36:e2:2e:1e:f7:34:3c:99:98:3e:9c:
                    ad:0b:b4:d7:31:4e:c9:60:04:0f:29:93:d9:ba:c2:
                    e8:4a:a9:e5:50:03:ac:fa:e0:fc:54:fa:30:10:4a:
                    ac:97:20:84:99:f8:c8:a3:e7:8e:01:ed:30:98:41:
                    81:3d:5a:09:3f:46:62:22:3d:4d:14:45:a2:e6:ba:
                    70:1a:a9:65:a9:09:9d:35:c6:b6:9f:8b:a4:32:70:
                    c1:44:79:a8:00:19:dd:55:60:2a:b3:af:ba:27:dc:
                    eb:11:56:be:0f:5d:35:25:84:e1:64:1d:49:3b:14:
                    f4:f7:b8:ce:8a:04:ef:86:27:ac:0b:06:29:c0:24:
                    0e:3e:45:88:82:08:25:38:cb:8f:8e:75:d2:e2:a7:
                    13:f6:54:df:ac:e5:4c:73:94:4d:76:a5:9e:b7:03:
                    e2:21:d0:ef:f6:05:34:4d:b5:f8:26:7a:12:a3:88:
                    08:b4:f2:05:ad:32:9d:cf:94:c3:6e:89:2f:0a:aa:
                    31:0d:8e:14:2d:58:98:91:8f:27:cc:10:85:7e:86:
                    9b:2e:00:fb:d2:61:49:3d:94:8c:90:5d:1c:b5:e9:
                    6b:47:06:5a:0e:2a:93:53:e9:3c:52:33:bb:51:ab:
                    fa:03
                Exponent: 65537 (0x10001)
        X509v3 extensions:
            X509v3 Key Usage: critical
                Certificate Sign, CRL Sign
            X509v3 Basic Constraints: critical
                CA:TRUE
            X509v3 Subject Key Identifier: 
                F0:12:B0:45:C7:2C:43:5A:CE:27:6C:CF:30:BB:80:69:E3:30:05:34
            X509v3 Authority Key Identifier: 
                keyid:F0:12:B0:45:C7:2C:43:5A:CE:27:6C:CF:30:BB:80:69:E3:30:05:34

    Signature Algorithm: sha1WithRSAEncryption
         46:59:e2:d6:d3:c7:18:1e:c7:e3:52:82:52:3e:7c:03:42:8a:
         a7:d0:79:d2:5d:ec:31:7a:1b:ef:b0:2a:c7:75:83:f9:bc:de:
         5e:89:57:33:fa:00:23:cf:3e:e1:bc:0b:67:67:a2:65:a2:6b:
         43:29:a9:68:b3:17:6b:23:ba:8c:d9:23:30:09:14:e9:79:3d:
         e1:20:05:0c:14:07:5d:d5:05:b7:7d:b1:cb:42:8f:86:c1:09:
         d0:f7:ab:a8:f3:4b:ac:9b:fb:1c:57:26:47:49:e3:43:45:22:
         18:8d:9b:78:5d:99:32:52:2b:7f:c4:c7:89:ee:74:5f:96:c6:
         ad:14:30:8c:62:13:b3:c3:76:2f:08:38:fa:87:a6:e9:e1:40:
         2d:d0:04:c3:2a:c2:20:20:3a:bb:8b:c8:9a:61:06:b4:0a:2a:
         e4:21:6d:a2:ac:ef:dd:af:58:82:ad:3b:62:d7:92:94:1d:64:
         9d:a3:95:77:a4:f2:3d:94:44:6f:39:53:68:3f:96:01:aa:30:
         0d:7e:67:51:d9:4c:9a:9a:ed:4b:f4:4e:d1:19:76:f6:f5:03:
         b6:24:86:4f:d3:b7:89:f6:00:45:29:b9:ee:3c:de:cc:29:1d:
         5f:ab:07:a0:90:cd:57:f9:c8:f7:fa:de:db:31:d5:51:27:d6:
         60:84:dc:4a
-----BEGIN CERTIFICATE-----
MIIDxjCCAq6gAwIBAgIBATANBgkqhkiG9w0BAQUFADB0MRMwEQYKCZImiZPyLGQB
GRYDb3JnMRYwFAYKCZImiZPyLGQBGRYGc2ltcGxlMRMwEQYDVQQKDApTaW1wbGUg
SW5jMRcwFQYDVQQLDA5TaW1wbGUgUm9vdCBDQTEXMBUGA1UEAwwOU2ltcGxlIFJv
b3QgQ0EwHhcNMTkxMTE5MDg0MjU2WhcNMjkxMTE4MDg0MjU2WjB0MRMwEQYKCZIm
iZPyLGQBGRYDb3JnMRYwFAYKCZImiZPyLGQBGRYGc2ltcGxlMRMwEQYDVQQKDApT
aW1wbGUgSW5jMRcwFQYDVQQLDA5TaW1wbGUgUm9vdCBDQTEXMBUGA1UEAwwOU2lt
cGxlIFJvb3QgQ0EwggEiMA0GCSqGSIb3DQEBAQUAA4IBDwAwggEKAoIBAQDDqrC5
PA/ORsI+s/oN3x+7HeY24i4e9zQ8mZg+nK0LtNcxTslgBA8pk9m6wuhKqeVQA6z6
4PxU+jAQSqyXIISZ+Mij544B7TCYQYE9Wgk/RmIiPU0URaLmunAaqWWpCZ01xraf
i6QycMFEeagAGd1VYCqzr7on3OsRVr4PXTUlhOFkHUk7FPT3uM6KBO+GJ6wLBinA
JA4+RYiCCCU4y4+OddLipxP2VN+s5UxzlE12pZ63A+Ih0O/2BTRNtfgmehKjiAi0
8gWtMp3PlMNuiS8KqjENjhQtWJiRjyfMEIV+hpsuAPvSYUk9lIyQXRy16WtHBloO
KpNT6TxSM7tRq/oDAgMBAAGjYzBhMA4GA1UdDwEB/wQEAwIBBjAPBgNVHRMBAf8E
BTADAQH/MB0GA1UdDgQWBBTwErBFxyxDWs4nbM8wu4Bp4zAFNDAfBgNVHSMEGDAW
gBTwErBFxyxDWs4nbM8wu4Bp4zAFNDANBgkqhkiG9w0BAQUFAAOCAQEARlni1tPH
GB7H41KCUj58A0KKp9B50l3sMXob77Aqx3WD+bzeXolXM/oAI88+4bwLZ2eiZaJr
QympaLMXayO6jNkjMAkU6Xk94SAFDBQHXdUFt32xy0KPhsEJ0PerqPNLrJv7HFcm
R0njQ0UiGI2beF2ZMlIrf8THie50X5bGrRQwjGITs8N2Lwg4+oem6eFALdAEwyrC
ICA6u4vImmEGtAoq5CFtoqzv3a9Ygq07YteSlB1knaOVd6TyPZREbzlTaD+WAaow
DX5nUdlMmprtS/RO0Rl29vUDtiSGT9O3ifYARSm57jzezCkdX6sHoJDNV/nI9/re
2zHVUSfWYITcSg==
-----END CERTIFICATE-----
